target datalayout = "e-m:e-p270:32:32-p271:32:32-p272:64:64-i64:64-i128:128-f80:128-n8:16:32:64-S128"
target triple = "x86_64-pc-linux-gnu"

%struct.redisObject = type { i32, i32, ptr }

@lazyfree_objects = internal global i64 0, align 8

; Function Attrs: nounwind uwtable
define dso_local void @freeObjAsync(ptr noundef %0, ptr noundef %1, i32 noundef %2) #0 {
  %4 = alloca ptr, align 8
  %5 = alloca ptr, align 8
  %6 = alloca i32, align 4
  %7 = alloca i64, align 8
  %8 = alloca i64, align 8
  %9 = alloca i64, align 8
  store ptr %0, ptr %4, align 8, !tbaa !9
  store ptr %1, ptr %5, align 8, !tbaa !9
  store i32 %2, ptr %6, align 4, !tbaa !30
  call void @llvm.lifetime.start.p0(i64 8, ptr %7) #7
  %10 = load ptr, ptr %4, align 8, !tbaa !9
  %11 = load ptr, ptr %5, align 8, !tbaa !9
  %12 = load i32, ptr %6, align 4, !tbaa !30
  %13 = call i64 @lazyfreeGetFreeEffort(ptr noundef %10, ptr noundef %11, i32 noundef %12)
  store i64 %13, ptr %7, align 8, !tbaa !11
  %14 = load i64, ptr %7, align 8, !tbaa !11
  %15 = icmp ugt i64 %14, 64
  br i1 %15, label %16, label %25

16:                                               ; preds = %3
  %17 = load ptr, ptr %5, align 8, !tbaa !9
  %18 = getelementptr inbounds nuw %struct.redisObject, ptr %17, i32 0, i32 1
  %19 = load i32, ptr %18, align 4, !tbaa !59
  %20 = icmp eq i32 %19, 1
  br i1 %20, label %21, label %25

21:                                               ; preds = %16
  store i64 1, ptr %8, align 8, !tbaa !11
  %22 = load i64, ptr %8, align 8
  %23 = atomicrmw add ptr @lazyfree_objects, i64 %22 monotonic, align 8
  store i64 %23, ptr %9, align 8
  %24 = load ptr, ptr %5, align 8, !tbaa !9
  call void (ptr, i32, ...) @bioCreateLazyFreeJob(ptr noundef @lazyfreeFreeObject, i32 noundef 1, ptr noundef %24)
  br label %27

25:                                               ; preds = %16, %3
  %26 = load ptr, ptr %5, align 8, !tbaa !9
  call void @decrRefCount(ptr noundef %26)
  br label %27

27:                                               ; preds = %25, %21
  call void @llvm.lifetime.end.p0(i64 8, ptr %7) #7
  ret void
}