; Function Attrs: nounwind uwtable
define dso_local void @freeObjAsync(ptr noundef %0, ptr noundef %1, i32 noundef %2) local_unnamed_addr #0 {
  %4 = tail call i64 @lazyfreeGetFreeEffort(ptr noundef %0, ptr noundef %1, i32 noundef %2)
  %5 = icmp ugt i64 %4, 64
  br i1 %5, label %6, label %12

6:                                                ; preds = %3
  %7 = getelementptr inbounds nuw i8, ptr %1, i64 4
  %8 = load i32, ptr %7, align 4, !tbaa !38
  %9 = icmp eq i32 %8, 1
  br i1 %9, label %10, label %12

10:                                               ; preds = %6
  %11 = atomicrmw add ptr @lazyfree_objects, i64 1 monotonic, align 8
  tail call void (ptr, i32, ...) @bioCreateLazyFreeJob(ptr noundef nonnull @lazyfreeFreeObject, i32 noundef 1, ptr noundef nonnull %1) #6
  br label %13

12:                                               ; preds = %6, %3
  tail call void @decrRefCount(ptr noundef %1) #6
  br label %13

13:                                               ; preds = %12, %10
  ret void
}